target datalayout = "e-m:e-p270:32:32-p271:32:32-p272:64:64-i64:64-i128:128-f80:128-n8:16:32:64-S128"
target triple = "x86_64-pc-linux-gnu"

%struct.SDL_TrayEntry = type { ptr, ptr, i8, i32, ptr, ptr, ptr }

@gtk_check_menu_item_set_active = internal global ptr null, align 8
@gtk_check_menu_item_get_active = internal global ptr null, align 8

; Function Attrs: nounwind uwtable
define hidden void @SDL_SetTrayEntryChecked_REAL(ptr noundef %0, i1 noundef zeroext %1) #0 {
  %3 = alloca ptr, align 8
  %4 = alloca i8, align 1
  store ptr %0, ptr %3, align 8
  %5 = zext i1 %1 to i8
  store i8 %5, ptr %4, align 1
  %6 = load ptr, ptr %3, align 8
  %7 = icmp ne ptr %6, null
  br i1 %7, label %8, label %14

8:                                                ; preds = %2
  %9 = load ptr, ptr %3, align 8
  %10 = getelementptr inbounds nuw %struct.SDL_TrayEntry, ptr %9, i32 0, i32 3
  %11 = load i32, ptr %10, align 4
  %12 = and i32 %11, 2
  %13 = icmp ne i32 %12, 0
  br i1 %13, label %15, label %14

14:                                               ; preds = %8, %2
  br label %27

15:                                               ; preds = %8
  %16 = load ptr, ptr %3, align 8
  %17 = getelementptr inbounds nuw %struct.SDL_TrayEntry, ptr %16, i32 0, i32 2
  store i8 1, ptr %17, align 8
  %18 = load ptr, ptr @gtk_check_menu_item_set_active, align 8
  %19 = load ptr, ptr %3, align 8
  %20 = getelementptr inbounds nuw %struct.SDL_TrayEntry, ptr %19, i32 0, i32 1
  %21 = load ptr, ptr %20, align 8
  %22 = load i8, ptr %4, align 1, !range !3, !noundef !4
  %23 = trunc i8 %22 to i1
  %24 = zext i1 %23 to i32
  call void %18(ptr noundef %21, i32 noundef %24)
  %25 = load ptr, ptr %3, align 8
  %26 = getelementptr inbounds nuw %struct.SDL_TrayEntry, ptr %25, i32 0, i32 2
  store i8 0, ptr %26, align 8
  br label %27

27:                                               ; preds = %15, %14
  ret void
}

; Function Attrs: nounwind uwtable
define hidden zeroext i1 @SDL_GetTrayEntryChecked_REAL(ptr noundef %0) #0 {
  %2 = alloca i1, align 1
  %3 = alloca ptr, align 8
  store ptr %0, ptr %3, align 8
  %4 = load ptr, ptr %3, align 8
  %5 = icmp ne ptr %4, null
  br i1 %5, label %6, label %12

6:                                                ; preds = %1
  %7 = load ptr, ptr %3, align 8
  %8 = getelementptr inbounds nuw %struct.SDL_TrayEntry, ptr %7, i32 0, i32 3
  %9 = load i32, ptr %8, align 4
  %10 = and i32 %9, 2
  %11 = icmp ne i32 %10, 0
  br i1 %11, label %13, label %12

12:                                               ; preds = %6, %1
  store i1 false, ptr %2, align 1
  br label %20

13:                                               ; preds = %6
  %14 = load ptr, ptr @gtk_check_menu_item_get_active, align 8
  %15 = load ptr, ptr %3, align 8
  %16 = getelementptr inbounds nuw %struct.SDL_TrayEntry, ptr %15, i32 0, i32 1
  %17 = load ptr, ptr %16, align 8
  %18 = call i32 %14(ptr noundef %17)
  %19 = icmp ne i32 %18, 0
  store i1 %19, ptr %2, align 1
  br label %20

20:                                               ; preds = %13, %12
  %21 = load i1, ptr %2, align 1
  ret i1 %21
}

; Function Attrs: nounwind uwtable
define hidden void @SDL_ClickTrayEntry_REAL(ptr noundef %0) #0 {
  %2 = alloca ptr, align 8
  store ptr %0, ptr %2, align 8
  %3 = load ptr, ptr %2, align 8
  %4 = icmp ne ptr %3, null
  br i1 %4, label %6, label %5

5:                                                ; preds = %1
  br label %30

6:                                                ; preds = %1
  %7 = load ptr, ptr %2, align 8
  %8 = getelementptr inbounds nuw %struct.SDL_TrayEntry, ptr %7, i32 0, i32 3
  %9 = load i32, ptr %8, align 4
  %10 = and i32 %9, 2
  %11 = icmp ne i32 %10, 0
  br i1 %11, label %12, label %17

12:                                               ; preds = %6
  %13 = load ptr, ptr %2, align 8
  %14 = load ptr, ptr %2, align 8
  %15 = call zeroext i1 @SDL_GetTrayEntryChecked_REAL(ptr noundef %14)
  %16 = xor i1 %15, true
  call void @SDL_SetTrayEntryChecked_REAL(ptr noundef %13, i1 noundef zeroext %16)
  br label %17

17:                                               ; preds = %12, %6
  %18 = load ptr, ptr %2, align 8
  %19 = getelementptr inbounds nuw %struct.SDL_TrayEntry, ptr %18, i32 0, i32 4
  %20 = load ptr, ptr %19, align 8
  %21 = icmp ne ptr %20, null
  br i1 %21, label %22, label %30

22:                                               ; preds = %17
  %23 = load ptr, ptr %2, align 8
  %24 = getelementptr inbounds nuw %struct.SDL_TrayEntry, ptr %23, i32 0, i32 4
  %25 = load ptr, ptr %24, align 8
  %26 = load ptr, ptr %2, align 8
  %27 = getelementptr inbounds nuw %struct.SDL_TrayEntry, ptr %26, i32 0, i32 5
  %28 = load ptr, ptr %27, align 8
  %29 = load ptr, ptr %2, align 8
  call void %25(ptr noundef %28, ptr noundef %29)
  br label %30

30:                                               ; preds = %5, %22, %17
  ret void
}