; Function Attrs: nounwind uwtable
define hidden void @SDL_ClickTrayEntry_REAL(ptr noundef %0) local_unnamed_addr #0 {
  %.not = icmp eq ptr %0, null
  br i1 %.not, label %23, label %2

2:                                                ; preds = %1
  %3 = getelementptr inbounds nuw i8, ptr %0, i64 20
  %4 = load i32, ptr %3, align 4
  %5 = and i32 %4, 2
  %.not9 = icmp eq i32 %5, 0
  br i1 %.not9, label %SDL_SetTrayEntryChecked_REAL.exit, label %6

6:                                                ; preds = %2
  %7 = load ptr, ptr @gtk_check_menu_item_get_active, align 8
  %8 = getelementptr inbounds nuw i8, ptr %0, i64 8
  %9 = load ptr, ptr %8, align 8
  %10 = tail call i32 %7(ptr noundef %9) #10
  %11 = load i32, ptr %3, align 4
  %12 = and i32 %11, 2
  %.not5.i12 = icmp eq i32 %12, 0
  br i1 %.not5.i12, label %SDL_SetTrayEntryChecked_REAL.exit, label %13

13:                                               ; preds = %6
  %.not13 = icmp eq i32 %10, 0
  %14 = getelementptr inbounds nuw i8, ptr %0, i64 16
  store i8 1, ptr %14, align 8
  %15 = load ptr, ptr @gtk_check_menu_item_set_active, align 8
  %16 = load ptr, ptr %8, align 8
  %17 = zext i1 %.not13 to i32
  tail call void %15(ptr noundef %16, i32 noundef %17) #10
  store i8 0, ptr %14, align 8
  br label %SDL_SetTrayEntryChecked_REAL.exit

SDL_SetTrayEntryChecked_REAL.exit:                ; preds = %13, %6, %2
  %18 = getelementptr inbounds nuw i8, ptr %0, i64 24
  %19 = load ptr, ptr %18, align 8
  %.not10 = icmp eq ptr %19, null
  br i1 %.not10, label %23, label %20

20:                                               ; preds = %SDL_SetTrayEntryChecked_REAL.exit
  %21 = getelementptr inbounds nuw i8, ptr %0, i64 32
  %22 = load ptr, ptr %21, align 8
  tail call void %19(ptr noundef %22, ptr noundef nonnull %0) #10
  br label %23

23:                                               ; preds = %1, %20, %SDL_SetTrayEntryChecked_REAL.exit
  ret void
}